; Function Attrs: nounwind uwtable
define dso_local void @archive_entry_set_symlink(ptr noundef %0, ptr noundef %1) local_unnamed_addr #0 {
  %3 = icmp eq ptr %1, null
  br i1 %3, label %4, label %.sink.split

4:                                                ; preds = %2
  %5 = getelementptr inbounds nuw i8, ptr %0, i64 192
  %6 = load i32, ptr %5, align 8, !tbaa !31
  %7 = and i32 %6, 1
  %.not = icmp eq i32 %7, 0
  br i1 %.not, label %.sink.split, label %15

.sink.split:                                      ; preds = %4, %2
  %8 = getelementptr inbounds nuw i8, ptr %0, i64 424
  %9 = tail call i32 @archive_mstring_copy_mbs(ptr noundef nonnull %8, ptr noundef %1) #21
  %10 = getelementptr inbounds nuw i8, ptr %0, i64 192
  %11 = load i32, ptr %10, align 8, !tbaa !31
  %12 = and i32 %11, -4
  %13 = or disjoint i32 %12, 2
  %14 = and i32 %11, -4
  %.sink = select i1 %3, i32 %14, i32 %13
  store i32 %.sink, ptr %10, align 8, !tbaa !31
  br label %15

15:                                               ; preds = %.sink.split, %4
  ret void
}